; Function Attrs: nofree norecurse nosync nounwind memory(read, argmem: readwrite, inaccessiblemem: none) uwtable
define internal void @TM8uv_C(ptr noundef captures(none) %0) #5 {
  %2 = getelementptr inbounds i8, ptr %0, i64 -32
  %3 = load ptr, ptr @VP8kclip1, align 8, !tbaa !18
  %4 = getelementptr inbounds i8, ptr %0, i64 -33
  %5 = load i8, ptr %4, align 1, !tbaa !14
  %6 = zext i8 %5 to i64
  %7 = sub nsw i64 0, %6
  %8 = getelementptr inbounds i8, ptr %3, i64 %7
  br label %9

9:                                                ; preds = %21, %1
  %.01520.i = phi ptr [ %0, %1 ], [ %22, %21 ]
  %.01619.i = phi i32 [ 0, %1 ], [ %23, %21 ]
  %10 = getelementptr inbounds i8, ptr %.01520.i, i64 -1
  %11 = load i8, ptr %10, align 1, !tbaa !14
  %12 = zext i8 %11 to i64
  %13 = getelementptr inbounds nuw i8, ptr %8, i64 %12
  br label %14

14:                                               ; preds = %14, %9
  %indvars.iv.i = phi i64 [ 0, %9 ], [ %indvars.iv.next.i, %14 ]
  %15 = getelementptr inbounds nuw i8, ptr %2, i64 %indvars.iv.i
  %16 = load i8, ptr %15, align 1, !tbaa !14
  %17 = zext i8 %16 to i64
  %18 = getelementptr inbounds nuw i8, ptr %13, i64 %17
  %19 = load i8, ptr %18, align 1, !tbaa !14
  %20 = getelementptr inbounds nuw i8, ptr %.01520.i, i64 %indvars.iv.i
  store i8 %19, ptr %20, align 1, !tbaa !14
  %indvars.iv.next.i = add nuw nsw i64 %indvars.iv.i, 1
  %exitcond.not.i = icmp eq i64 %indvars.iv.next.i, 8
  br i1 %exitcond.not.i, label %21, label %14, !llvm.loop !27

21:                                               ; preds = %14
  %22 = getelementptr inbounds nuw i8, ptr %.01520.i, i64 32
  %23 = add nuw nsw i32 %.01619.i, 1
  %exitcond22.not.i = icmp eq i32 %23, 8
  br i1 %exitcond22.not.i, label %TrueMotion.exit, label %9, !llvm.loop !28

TrueMotion.exit:                                  ; preds = %21
  ret void
}